target datalayout = "e-m:e-p270:32:32-p271:32:32-p272:64:64-i64:64-i128:128-f80:128-n8:16:32:64-S128"
target triple = "x86_64-pc-linux-gnu"

%struct.WOLFSSL = type <{ ptr, ptr, ptr, ptr, [48 x i8], [48 x i8], ptr, ptr, ptr, ptr, ptr, ptr, ptr, ptr, ptr, ptr, ptr, ptr, ptr, i32, [4 x i8], %struct.WOLFSSL_CIPHER, ptr, %struct.Ciphers, %struct.Ciphers, [8 x i8], %struct.Buffers, ptr, ptr, %struct.WOLFSSL_ALERT_HISTORY, %struct.WOLFSSL_ALERT, i32, i32, i32, i32, i32, i32, i32, i16, [2 x i8], i32, i8, %struct.RecordLayerHeader, %struct.MsgsReceived, %struct.ProtocolVersion, %struct.ProtocolVersion, %struct.CipherSpecs, [2 x i8], %struct.Keys, %struct.Options, ptr, i8, i8, i16, [10 x i16], i8, i8, i16, i16, [38 x i8], i32, i32, [4 x i8], ptr, i8, i8, [6 x i8], ptr, ptr, i16, i8, i8, i32, i8, [3 x i8], i32, %struct.OneTimeAuth, ptr }>
%struct.WOLFSSL_CIPHER = type { i8, i8, ptr }
%struct.Ciphers = type { ptr, ptr, ptr, ptr, i8, i8 }
%struct.Buffers = type { %struct.bufferStatic, %struct.bufferStatic, %struct.WOLFSSL_BUFFER_INFO, %struct.WOLFSSL_BUFFER_INFO, %struct.WOLFSSL_BUFFER_INFO, %struct.WOLFSSL_BUFFER_INFO, i32, i32, i8, i8, i8, i8, %struct.WOLFSSL_BUFFER_INFO, %struct.WOLFSSL_BUFFER_INFO, %struct.WOLFSSL_BUFFER_INFO, %struct.WOLFSSL_BUFFER_INFO, ptr, ptr, ptr, i8, i8, i32, i32, ptr, i32, [1 x ptr] }
%struct.bufferStatic = type { [5 x i8], ptr, i32, i32, i32, i8, i8 }
%struct.WOLFSSL_BUFFER_INFO = type { ptr, i32 }
%struct.WOLFSSL_ALERT_HISTORY = type { %struct.WOLFSSL_ALERT, %struct.WOLFSSL_ALERT }
%struct.WOLFSSL_ALERT = type { i32, i32 }
%struct.RecordLayerHeader = type { i8, i8, i8, [2 x i8] }
%struct.MsgsReceived = type { i32 }
%struct.ProtocolVersion = type { i8, i8 }
%struct.CipherSpecs = type { i16, i16, i16, i16, i8, i8, i8, i8, i8, i8, i8, i8 }
%struct.Keys = type { [64 x i8], [64 x i8], [32 x i8], [32 x i8], [16 x i8], [16 x i8], [8 x i8], [12 x i8], [12 x i8], i32, i32, i32, i32, i32, i32, i8, i8, i8, i8 }
%struct.Options = type { i64, i64, i8, i8, i8, i8, i8, i8, i8, i8, i8, i8, i8, i8, i8, i8, i8, i8, i8, i8, i8, i8, i8, i16, i16, i16, i16, i16, i8 }
%struct.OneTimeAuth = type { ptr, i8 }
%struct.WOLFSSL_CTX = type <{ ptr, %struct.wolfSSL_RefWithMutex, i32, [4 x i8], %struct.WOLFSSL_BUFFER_INFO, %struct.WOLFSSL_BUFFER_INFO, ptr, ptr, i32, [4 x i8], ptr, i8, i8, [2 x i8], i32, i32, [4 x i8], ptr, ptr, ptr, i8, i16, i8, i8, i8, i16, i16, i16, i16, [2 x i8], i64, ptr, ptr, ptr, ptr, i32, i32, i16, [2 x i8], i32, [10 x i16], i8, [3 x i8], ptr, ptr, i32, [4 x i8], ptr, i8, [7 x i8] }>
%struct.wolfSSL_RefWithMutex = type { %union.pthread_mutex_t, i32 }
%union.pthread_mutex_t = type { %struct.__pthread_mutex_s }
%struct.__pthread_mutex_s = type { i32, i32, i32, i32, i32, i16, i16, %struct.__pthread_internal_list }
%struct.__pthread_internal_list = type { ptr, ptr }

; Function Attrs: nounwind uwtable
define internal i32 @wolfSSLReceive(ptr noundef %0, ptr noundef %1, i32 noundef %2) #0 {
  %4 = alloca i32, align 4
  %5 = alloca ptr, align 8
  %6 = alloca ptr, align 8
  %7 = alloca i32, align 4
  %8 = alloca i32, align 4
  %9 = alloca i32, align 4
  %10 = alloca i32, align 4
  store ptr %0, ptr %5, align 8, !tbaa !3
  store ptr %1, ptr %6, align 8, !tbaa !89
  store i32 %2, ptr %7, align 4, !tbaa !47
  call void @llvm.lifetime.start.p0(i64 4, ptr %8) #9
  call void @llvm.lifetime.start.p0(i64 4, ptr %9) #9
  store i32 10, ptr %9, align 4, !tbaa !47
  %11 = load ptr, ptr %5, align 8, !tbaa !3
  %12 = getelementptr inbounds nuw %struct.WOLFSSL, ptr %11, i32 0, i32 13
  %13 = load ptr, ptr %12, align 8, !tbaa !192
  %14 = icmp eq ptr %13, null
  br i1 %14, label %15, label %19

15:                                               ; preds = %3
  br label %16

16:                                               ; preds = %15
  br label %17

17:                                               ; preds = %16
  br label %18

18:                                               ; preds = %17
  store i32 -1, ptr %4, align 4
  store i32 1, ptr %10, align 4
  br label %90

19:                                               ; preds = %3
  br label %20

20:                                               ; preds = %63, %19
  %21 = load ptr, ptr %5, align 8, !tbaa !3
  %22 = getelementptr inbounds nuw %struct.WOLFSSL, ptr %21, i32 0, i32 13
  %23 = load ptr, ptr %22, align 8, !tbaa !192
  %24 = load ptr, ptr %5, align 8, !tbaa !3
  %25 = load ptr, ptr %6, align 8, !tbaa !89
  %26 = load i32, ptr %7, align 4, !tbaa !47
  %27 = load ptr, ptr %5, align 8, !tbaa !3
  %28 = getelementptr inbounds nuw %struct.WOLFSSL, ptr %27, i32 0, i32 7
  %29 = load ptr, ptr %28, align 8, !tbaa !224
  %30 = call i32 %23(ptr noundef %24, ptr noundef %25, i32 noundef %26, ptr noundef %29)
  store i32 %30, ptr %8, align 4, !tbaa !47
  %31 = load i32, ptr %8, align 4, !tbaa !47
  %32 = icmp slt i32 %31, 0
  br i1 %32, label %33, label %88

33:                                               ; preds = %20
  %34 = load i32, ptr %8, align 4, !tbaa !47
  switch i32 %34, label %83 [
    i32 -1, label %35
    i32 -2, label %36
    i32 -3, label %67
    i32 -4, label %74
    i32 -5, label %75
    i32 -6, label %82
  ]

35:                                               ; preds = %33
  store i32 -1, ptr %4, align 4
  store i32 1, ptr %10, align 4
  br label %90

36:                                               ; preds = %33
  %37 = load i32, ptr %9, align 4, !tbaa !47
  %38 = icmp sgt i32 %37, 0
  br i1 %38, label %39, label %66

39:                                               ; preds = %36
  %40 = load ptr, ptr %5, align 8, !tbaa !3
  %41 = getelementptr inbounds nuw %struct.WOLFSSL, ptr %40, i32 0, i32 0
  %42 = load ptr, ptr %41, align 16, !tbaa !121
  %43 = getelementptr inbounds nuw %struct.WOLFSSL_CTX, ptr %42, i32 0, i32 22
  %44 = load i8, ptr %43, align 1
  %45 = and i8 %44, 1
  %46 = zext i8 %45 to i32
  %47 = icmp ne i32 %46, 0
  br i1 %47, label %48, label %66

48:                                               ; preds = %39
  %49 = load ptr, ptr %5, align 8, !tbaa !3
  %50 = getelementptr inbounds nuw %struct.WOLFSSL, ptr %49, i32 0, i32 49
  %51 = getelementptr inbounds nuw %struct.Options, ptr %50, i32 0, i32 16
  %52 = load i8, ptr %51, align 2, !tbaa !275
  %53 = icmp ne i8 %52, 0
  br i1 %53, label %66, label %54

54:                                               ; preds = %48
  %55 = load ptr, ptr %5, align 8, !tbaa !3
  %56 = getelementptr inbounds nuw %struct.WOLFSSL, ptr %55, i32 0, i32 49
  %57 = getelementptr inbounds nuw %struct.Options, ptr %56, i32 0, i32 1
  %58 = load i64, ptr %57, align 8
  %59 = lshr i64 %58, 17
  %60 = and i64 %59, 1
  %61 = trunc i64 %60 to i16
  %62 = icmp ne i16 %61, 0
  br i1 %62, label %66, label %63

63:                                               ; preds = %54
  %64 = load i32, ptr %9, align 4, !tbaa !47
  %65 = add nsw i32 %64, -1
  store i32 %65, ptr %9, align 4, !tbaa !47
  br label %20

66:                                               ; preds = %54, %48, %39, %36
  store i32 -323, ptr %4, align 4
  store i32 1, ptr %10, align 4
  br label %90

67:                                               ; preds = %33
  %68 = load ptr, ptr %5, align 8, !tbaa !3
  %69 = getelementptr inbounds nuw %struct.WOLFSSL, ptr %68, i32 0, i32 49
  %70 = getelementptr inbounds nuw %struct.Options, ptr %69, i32 0, i32 1
  %71 = load i64, ptr %70, align 8
  %72 = and i64 %71, -262145
  %73 = or i64 %72, 262144
  store i64 %73, ptr %70, align 8
  store i32 -1, ptr %4, align 4
  store i32 1, ptr %10, align 4
  br label %90

74:                                               ; preds = %33
  store i32 -1, ptr %4, align 4
  store i32 1, ptr %10, align 4
  br label %90

75:                                               ; preds = %33
  %76 = load ptr, ptr %5, align 8, !tbaa !3
  %77 = getelementptr inbounds nuw %struct.WOLFSSL, ptr %76, i32 0, i32 49
  %78 = getelementptr inbounds nuw %struct.Options, ptr %77, i32 0, i32 1
  %79 = load i64, ptr %78, align 8
  %80 = and i64 %79, -524289
  %81 = or i64 %80, 524288
  store i64 %81, ptr %78, align 8
  store i32 -1, ptr %4, align 4
  store i32 1, ptr %10, align 4
  br label %90

82:                                               ; preds = %33
  store i32 -1, ptr %4, align 4
  store i32 1, ptr %10, align 4
  br label %90

83:                                               ; preds = %33
  br label %84

84:                                               ; preds = %83
  br label %85

85:                                               ; preds = %84
  br label %86

86:                                               ; preds = %85
  %87 = load i32, ptr %8, align 4, !tbaa !47
  store i32 %87, ptr %4, align 4
  store i32 1, ptr %10, align 4
  br label %90

88:                                               ; preds = %20
  %89 = load i32, ptr %8, align 4, !tbaa !47
  store i32 %89, ptr %4, align 4
  store i32 1, ptr %10, align 4
  br label %90

90:                                               ; preds = %88, %86, %82, %75, %74, %67, %66, %35, %18
  call void @llvm.lifetime.end.p0(i64 4, ptr %9) #9
  call void @llvm.lifetime.end.p0(i64 4, ptr %8) #9
  %91 = load i32, ptr %4, align 4
  ret i32 %91
}

; Function Attrs: nounwind uwtable
define internal i32 @GetInputData(ptr noundef %0, i32 noundef %1) #0 {
  %3 = alloca i32, align 4
  %4 = alloca ptr, align 8
  %5 = alloca i32, align 4
  %6 = alloca i32, align 4
  %7 = alloca i32, align 4
  %8 = alloca i32, align 4
  %9 = alloca i32, align 4
  %10 = alloca i32, align 4
  %11 = alloca i32, align 4
  store ptr %0, ptr %4, align 8, !tbaa !3
  store i32 %1, ptr %5, align 4, !tbaa !47
  call void @llvm.lifetime.start.p0(i64 4, ptr %6) #9
  call void @llvm.lifetime.start.p0(i64 4, ptr %7) #9
  call void @llvm.lifetime.start.p0(i64 4, ptr %8) #9
  call void @llvm.lifetime.start.p0(i64 4, ptr %9) #9
  store i32 0, ptr %9, align 4, !tbaa !47
  %12 = load ptr, ptr %4, align 8, !tbaa !3
  %13 = getelementptr inbounds nuw %struct.WOLFSSL, ptr %12, i32 0, i32 49
  %14 = getelementptr inbounds nuw %struct.Options, ptr %13, i32 0, i32 1
  %15 = load i64, ptr %14, align 8
  %16 = lshr i64 %15, 57
  %17 = and i64 %16, 1
  %18 = trunc i64 %17 to i16
  %19 = icmp ne i16 %18, 0
  br i1 %19, label %20, label %21

20:                                               ; preds = %2
  store i32 -323, ptr %3, align 4
  store i32 1, ptr %10, align 4
  br label %159

21:                                               ; preds = %2
  %22 = load ptr, ptr %4, align 8, !tbaa !3
  %23 = getelementptr inbounds nuw %struct.WOLFSSL, ptr %22, i32 0, i32 26
  %24 = getelementptr inbounds nuw %struct.Buffers, ptr %23, i32 0, i32 0
  %25 = getelementptr inbounds nuw %struct.bufferStatic, ptr %24, i32 0, i32 2
  %26 = load i32, ptr %25, align 16, !tbaa !263
  %27 = load ptr, ptr %4, align 8, !tbaa !3
  %28 = getelementptr inbounds nuw %struct.WOLFSSL, ptr %27, i32 0, i32 26
  %29 = getelementptr inbounds nuw %struct.Buffers, ptr %28, i32 0, i32 0
  %30 = getelementptr inbounds nuw %struct.bufferStatic, ptr %29, i32 0, i32 3
  %31 = load i32, ptr %30, align 4, !tbaa !264
  %32 = sub i32 %26, %31
  store i32 %32, ptr %8, align 4, !tbaa !47
  %33 = load ptr, ptr %4, align 8, !tbaa !3
  %34 = getelementptr inbounds nuw %struct.WOLFSSL, ptr %33, i32 0, i32 26
  %35 = getelementptr inbounds nuw %struct.Buffers, ptr %34, i32 0, i32 0
  %36 = getelementptr inbounds nuw %struct.bufferStatic, ptr %35, i32 0, i32 4
  %37 = load i32, ptr %36, align 8, !tbaa !209
  %38 = load i32, ptr %8, align 4, !tbaa !47
  %39 = sub i32 %37, %38
  store i32 %39, ptr %7, align 4, !tbaa !47
  %40 = load i32, ptr %8, align 4, !tbaa !47
  %41 = icmp slt i32 %40, 0
  br i1 %41, label %45, label %42

42:                                               ; preds = %21
  %43 = load i32, ptr %7, align 4, !tbaa !47
  %44 = icmp slt i32 %43, 0
  br i1 %44, label %45, label %46

45:                                               ; preds = %42, %21
  store i32 -328, ptr %3, align 4
  store i32 1, ptr %10, align 4
  br label %159

46:                                               ; preds = %42
  %47 = load i32, ptr %5, align 4, !tbaa !47
  %48 = load i32, ptr %8, align 4, !tbaa !47
  %49 = icmp ule i32 %47, %48
  br i1 %49, label %50, label %51

50:                                               ; preds = %46
  store i32 0, ptr %3, align 4
  store i32 1, ptr %10, align 4
  br label %159

51:                                               ; preds = %46
  %52 = load i32, ptr %5, align 4, !tbaa !47
  %53 = load i32, ptr %8, align 4, !tbaa !47
  %54 = sub i32 %52, %53
  store i32 %54, ptr %6, align 4, !tbaa !47
  %55 = load i32, ptr %6, align 4, !tbaa !47
  %56 = load i32, ptr %7, align 4, !tbaa !47
  %57 = icmp sgt i32 %55, %56
  br i1 %57, label %58, label %68

58:                                               ; preds = %51
  %59 = load ptr, ptr %4, align 8, !tbaa !3
  %60 = load i32, ptr %5, align 4, !tbaa !47
  %61 = load i32, ptr %9, align 4, !tbaa !47
  %62 = add i32 %60, %61
  %63 = load i32, ptr %8, align 4, !tbaa !47
  %64 = call i32 @GrowInputBuffer(ptr noundef %59, i32 noundef %62, i32 noundef %63)
  %65 = icmp slt i32 %64, 0
  br i1 %65, label %66, label %67

66:                                               ; preds = %58
  store i32 -125, ptr %3, align 4
  store i32 1, ptr %10, align 4
  br label %159

67:                                               ; preds = %58
  br label %68

68:                                               ; preds = %67, %51
  %69 = load i32, ptr %8, align 4, !tbaa !47
  %70 = icmp sgt i32 %69, 0
  br i1 %70, label %71, label %98

71:                                               ; preds = %68
  %72 = load ptr, ptr %4, align 8, !tbaa !3
  %73 = getelementptr inbounds nuw %struct.WOLFSSL, ptr %72, i32 0, i32 26
  %74 = getelementptr inbounds nuw %struct.Buffers, ptr %73, i32 0, i32 0
  %75 = getelementptr inbounds nuw %struct.bufferStatic, ptr %74, i32 0, i32 3
  %76 = load i32, ptr %75, align 4, !tbaa !264
  %77 = icmp ne i32 %76, 0
  br i1 %77, label %78, label %98

78:                                               ; preds = %71
  %79 = load ptr, ptr %4, align 8, !tbaa !3
  %80 = getelementptr inbounds nuw %struct.WOLFSSL, ptr %79, i32 0, i32 26
  %81 = getelementptr inbounds nuw %struct.Buffers, ptr %80, i32 0, i32 0
  %82 = getelementptr inbounds nuw %struct.bufferStatic, ptr %81, i32 0, i32 1
  %83 = load ptr, ptr %82, align 8, !tbaa !208
  %84 = load ptr, ptr %4, align 8, !tbaa !3
  %85 = getelementptr inbounds nuw %struct.WOLFSSL, ptr %84, i32 0, i32 26
  %86 = getelementptr inbounds nuw %struct.Buffers, ptr %85, i32 0, i32 0
  %87 = getelementptr inbounds nuw %struct.bufferStatic, ptr %86, i32 0, i32 1
  %88 = load ptr, ptr %87, align 8, !tbaa !208
  %89 = load ptr, ptr %4, align 8, !tbaa !3
  %90 = getelementptr inbounds nuw %struct.WOLFSSL, ptr %89, i32 0, i32 26
  %91 = getelementptr inbounds nuw %struct.Buffers, ptr %90, i32 0, i32 0
  %92 = getelementptr inbounds nuw %struct.bufferStatic, ptr %91, i32 0, i32 3
  %93 = load i32, ptr %92, align 4, !tbaa !264
  %94 = zext i32 %93 to i64
  %95 = getelementptr inbounds nuw i8, ptr %88, i64 %94
  %96 = load i32, ptr %8, align 4, !tbaa !47
  %97 = sext i32 %96 to i64
  call void @llvm.memmove.p0.p0.i64(ptr align 1 %83, ptr align 1 %95, i64 %97, i1 false)
  br label %98

98:                                               ; preds = %78, %71, %68
  %99 = load ptr, ptr %4, align 8, !tbaa !3
  %100 = getelementptr inbounds nuw %struct.WOLFSSL, ptr %99, i32 0, i32 26
  %101 = getelementptr inbounds nuw %struct.Buffers, ptr %100, i32 0, i32 0
  %102 = getelementptr inbounds nuw %struct.bufferStatic, ptr %101, i32 0, i32 3
  store i32 0, ptr %102, align 4, !tbaa !264
  %103 = load i32, ptr %8, align 4, !tbaa !47
  %104 = load ptr, ptr %4, align 8, !tbaa !3
  %105 = getelementptr inbounds nuw %struct.WOLFSSL, ptr %104, i32 0, i32 26
  %106 = getelementptr inbounds nuw %struct.Buffers, ptr %105, i32 0, i32 0
  %107 = getelementptr inbounds nuw %struct.bufferStatic, ptr %106, i32 0, i32 2
  store i32 %103, ptr %107, align 16, !tbaa !263
  br label %108

108:                                              ; preds = %150, %98
  call void @llvm.lifetime.start.p0(i64 4, ptr %11) #9
  %109 = load ptr, ptr %4, align 8, !tbaa !3
  %110 = load ptr, ptr %4, align 8, !tbaa !3
  %111 = getelementptr inbounds nuw %struct.WOLFSSL, ptr %110, i32 0, i32 26
  %112 = getelementptr inbounds nuw %struct.Buffers, ptr %111, i32 0, i32 0
  %113 = getelementptr inbounds nuw %struct.bufferStatic, ptr %112, i32 0, i32 1
  %114 = load ptr, ptr %113, align 8, !tbaa !208
  %115 = load ptr, ptr %4, align 8, !tbaa !3
  %116 = getelementptr inbounds nuw %struct.WOLFSSL, ptr %115, i32 0, i32 26
  %117 = getelementptr inbounds nuw %struct.Buffers, ptr %116, i32 0, i32 0
  %118 = getelementptr inbounds nuw %struct.bufferStatic, ptr %117, i32 0, i32 2
  %119 = load i32, ptr %118, align 16, !tbaa !263
  %120 = zext i32 %119 to i64
  %121 = getelementptr inbounds nuw i8, ptr %114, i64 %120
  %122 = load i32, ptr %6, align 4, !tbaa !47
  %123 = call i32 @wolfSSLReceive(ptr noundef %109, ptr noundef %121, i32 noundef %122)
  store i32 %123, ptr %11, align 4, !tbaa !47
  %124 = load i32, ptr %11, align 4, !tbaa !47
  %125 = icmp eq i32 %124, -323
  br i1 %125, label %126, label %127

126:                                              ; preds = %108
  store i32 -323, ptr %3, align 4
  store i32 1, ptr %10, align 4
  br label %147

127:                                              ; preds = %108
  %128 = load i32, ptr %11, align 4, !tbaa !47
  %129 = icmp slt i32 %128, 0
  br i1 %129, label %130, label %131

130:                                              ; preds = %127
  store i32 -308, ptr %3, align 4
  store i32 1, ptr %10, align 4
  br label %147

131:                                              ; preds = %127
  %132 = load i32, ptr %11, align 4, !tbaa !47
  %133 = load i32, ptr %6, align 4, !tbaa !47
  %134 = icmp sgt i32 %132, %133
  br i1 %134, label %135, label %136

135:                                              ; preds = %131
  store i32 -376, ptr %3, align 4
  store i32 1, ptr %10, align 4
  br label %147

136:                                              ; preds = %131
  %137 = load i32, ptr %11, align 4, !tbaa !47
  %138 = load ptr, ptr %4, align 8, !tbaa !3
  %139 = getelementptr inbounds nuw %struct.WOLFSSL, ptr %138, i32 0, i32 26
  %140 = getelementptr inbounds nuw %struct.Buffers, ptr %139, i32 0, i32 0
  %141 = getelementptr inbounds nuw %struct.bufferStatic, ptr %140, i32 0, i32 2
  %142 = load i32, ptr %141, align 16, !tbaa !263
  %143 = add i32 %142, %137
  store i32 %143, ptr %141, align 16, !tbaa !263
  %144 = load i32, ptr %11, align 4, !tbaa !47
  %145 = load i32, ptr %6, align 4, !tbaa !47
  %146 = sub nsw i32 %145, %144
  store i32 %146, ptr %6, align 4, !tbaa !47
  store i32 0, ptr %10, align 4
  br label %147

147:                                              ; preds = %136, %135, %130, %126
  call void @llvm.lifetime.end.p0(i64 4, ptr %11) #9
  %148 = load i32, ptr %10, align 4
  switch i32 %148, label %159 [
    i32 0, label %149
  ]

149:                                              ; preds = %147
  br label %150

150:                                              ; preds = %149
  %151 = load ptr, ptr %4, align 8, !tbaa !3
  %152 = getelementptr inbounds nuw %struct.WOLFSSL, ptr %151, i32 0, i32 26
  %153 = getelementptr inbounds nuw %struct.Buffers, ptr %152, i32 0, i32 0
  %154 = getelementptr inbounds nuw %struct.bufferStatic, ptr %153, i32 0, i32 2
  %155 = load i32, ptr %154, align 16, !tbaa !263
  %156 = load i32, ptr %5, align 4, !tbaa !47
  %157 = icmp ult i32 %155, %156
  br i1 %157, label %108, label %158, !llvm.loop !533

158:                                              ; preds = %150
  store i32 0, ptr %3, align 4
  store i32 1, ptr %10, align 4
  br label %159

159:                                              ; preds = %158, %147, %66, %50, %45, %20
  call void @llvm.lifetime.end.p0(i64 4, ptr %9) #9
  call void @llvm.lifetime.end.p0(i64 4, ptr %8) #9
  call void @llvm.lifetime.end.p0(i64 4, ptr %7) #9
  call void @llvm.lifetime.end.p0(i64 4, ptr %6) #9
  %160 = load i32, ptr %3, align 4
  ret i32 %160
}