; Function Attrs: nounwind uwtable
define internal fastcc range(i32 -376, 1) i32 @GetInputData(ptr noundef %0, i32 noundef range(i32 0, 65536) %1) unnamed_addr #5 {
  %3 = getelementptr inbounds nuw i8, ptr %0, i64 1024
  %4 = load i64, ptr %3, align 8
  %5 = and i64 %4, 144115188075855872
  %.not = icmp eq i64 %5, 0
  br i1 %.not, label %6, label %.thread61

6:                                                ; preds = %2
  %7 = getelementptr inbounds nuw i8, ptr %0, i64 368
  %8 = load i32, ptr %7, align 16, !tbaa !215
  %9 = getelementptr inbounds nuw i8, ptr %0, i64 372
  %10 = load i32, ptr %9, align 4, !tbaa !216
  %11 = sub i32 %8, %10
  %12 = getelementptr inbounds nuw i8, ptr %0, i64 376
  %13 = load i32, ptr %12, align 8, !tbaa !172
  %14 = sub i32 %13, %11
  %15 = icmp slt i32 %11, 0
  %16 = icmp slt i32 %14, 0
  %or.cond = select i1 %15, i1 true, i1 %16
  br i1 %or.cond, label %.thread61, label %17

17:                                               ; preds = %6
  %.not50 = icmp samesign ugt i32 %1, %11
  br i1 %.not50, label %18, label %.thread61

18:                                               ; preds = %17
  %19 = sub nuw nsw i32 %1, %11
  %20 = icmp samesign ugt i32 %19, %14
  br i1 %20, label %21, label %24

21:                                               ; preds = %18
  %22 = tail call i32 @GrowInputBuffer(ptr noundef nonnull %0, i32 noundef %1, i32 noundef %11)
  %23 = icmp slt i32 %22, 0
  br i1 %23, label %.thread61, label %24

24:                                               ; preds = %21, %18
  %.not65 = icmp eq i32 %8, %10
  br i1 %.not65, label %33, label %25

25:                                               ; preds = %24
  %26 = load i32, ptr %9, align 4, !tbaa !216
  %.not51 = icmp eq i32 %26, 0
  br i1 %.not51, label %33, label %27

27:                                               ; preds = %25
  %28 = getelementptr inbounds nuw i8, ptr %0, i64 360
  %29 = load ptr, ptr %28, align 8, !tbaa !171
  %30 = zext i32 %26 to i64
  %31 = getelementptr inbounds nuw i8, ptr %29, i64 %30
  %32 = zext nneg i32 %11 to i64
  tail call void @llvm.memmove.p0.p0.i64(ptr align 1 %29, ptr nonnull align 1 %31, i64 %32, i1 false)
  br label %33

33:                                               ; preds = %27, %25, %24
  store i32 0, ptr %9, align 4, !tbaa !216
  store i32 %11, ptr %7, align 16, !tbaa !215
  %34 = getelementptr inbounds nuw i8, ptr %0, i64 360
  %35 = getelementptr inbounds nuw i8, ptr %0, i64 184
  %36 = getelementptr inbounds nuw i8, ptr %0, i64 136
  %37 = getelementptr inbounds nuw i8, ptr %0, i64 1046
  br label %38

38:                                               ; preds = %73, %33
  %39 = phi i32 [ %11, %33 ], [ %75, %73 ]
  %.043 = phi i32 [ %19, %33 ], [ %76, %73 ]
  %40 = load ptr, ptr %34, align 8, !tbaa !171
  %41 = zext i32 %39 to i64
  %42 = getelementptr inbounds nuw i8, ptr %40, i64 %41
  %43 = load ptr, ptr %35, align 8, !tbaa !156
  %44 = icmp eq ptr %43, null
  br i1 %44, label %.thread61, label %.preheader.i

.preheader.i:                                     ; preds = %38
  %45 = load ptr, ptr %36, align 8, !tbaa !180
  %46 = tail call i32 %43(ptr noundef nonnull %0, ptr noundef %42, i32 noundef range(i32 -65535, 65536) %.043, ptr noundef %45) #26
  %47 = icmp slt i32 %46, 0
  br i1 %47, label %.lr.ph.i, label %.loopexit

48:                                               ; preds = %63
  %49 = add nsw i32 %.024.i, -1
  %50 = load ptr, ptr %35, align 8, !tbaa !156
  %51 = load ptr, ptr %36, align 8, !tbaa !180
  %52 = tail call i32 %50(ptr noundef nonnull %0, ptr noundef %42, i32 noundef range(i32 -65535, 65536) %.043, ptr noundef %51) #26
  %53 = icmp slt i32 %52, 0
  br i1 %53, label %.lr.ph.i, label %.loopexit

.lr.ph.i:                                         ; preds = %.preheader.i, %48
  %54 = phi i32 [ %52, %48 ], [ %46, %.preheader.i ]
  %.024.i = phi i32 [ %49, %48 ], [ 10, %.preheader.i ]
  switch i32 %54, label %.thread61.loopexit [
    i32 -323, label %.thread61
    i32 -2, label %55
    i32 -3, label %66
    i32 -5, label %69
  ]

55:                                               ; preds = %.lr.ph.i
  %.not40.i = icmp eq i32 %.024.i, 0
  br i1 %.not40.i, label %.thread61, label %56

56:                                               ; preds = %55
  %57 = load ptr, ptr %0, align 16, !tbaa !99
  %58 = getelementptr inbounds nuw i8, ptr %57, i64 171
  %59 = load i8, ptr %58, align 1
  %60 = and i8 %59, 1
  %.not.i = icmp eq i8 %60, 0
  br i1 %.not.i, label %.thread61, label %61

61:                                               ; preds = %56
  %62 = load i8, ptr %37, align 2, !tbaa !229
  %.not19.i = icmp eq i8 %62, 0
  br i1 %.not19.i, label %63, label %.thread61

63:                                               ; preds = %61
  %64 = load i64, ptr %3, align 8
  %65 = and i64 %64, 131072
  %.not20.i = icmp eq i64 %65, 0
  br i1 %.not20.i, label %48, label %.thread61

66:                                               ; preds = %.lr.ph.i
  %67 = load i64, ptr %3, align 8
  %68 = or i64 %67, 262144
  store i64 %68, ptr %3, align 8
  br label %.thread61

69:                                               ; preds = %.lr.ph.i
  %70 = load i64, ptr %3, align 8
  %71 = or i64 %70, 524288
  store i64 %71, ptr %3, align 8
  br label %.thread61

.loopexit:                                        ; preds = %48, %.preheader.i
  %.017.i.ph = phi i32 [ %46, %.preheader.i ], [ %52, %48 ]
  %72 = icmp sgt i32 %.017.i.ph, %.043
  br i1 %72, label %.thread61, label %73

73:                                               ; preds = %.loopexit
  %74 = load i32, ptr %7, align 16, !tbaa !215
  %75 = add i32 %74, %.017.i.ph
  store i32 %75, ptr %7, align 16, !tbaa !215
  %76 = sub nsw i32 %.043, %.017.i.ph
  %77 = icmp ult i32 %75, %1
  br i1 %77, label %38, label %.thread61, !llvm.loop !475

.thread61.loopexit:                               ; preds = %.lr.ph.i
  br label %.thread61

.thread61:                                        ; preds = %38, %.loopexit, %73, %63, %61, %56, %55, %.lr.ph.i, %.thread61.loopexit, %69, %66, %21, %17, %6, %2
  %.0 = phi i32 [ -323, %2 ], [ -328, %6 ], [ 0, %17 ], [ -125, %21 ], [ -308, %66 ], [ -308, %69 ], [ -308, %.thread61.loopexit ], [ -323, %.lr.ph.i ], [ -323, %55 ], [ -323, %56 ], [ -323, %61 ], [ -323, %63 ], [ -308, %38 ], [ -376, %.loopexit ], [ 0, %73 ]
  ret i32 %.0
}